target datalayout = "e-m:e-p270:32:32-p271:32:32-p272:64:64-i64:64-i128:128-f80:128-n8:16:32:64-S128"
target triple = "x86_64-pc-linux-gnu"

%struct.Curl_easy = type { i32, i64, i64, ptr, %struct.Curl_llist_node, %struct.Curl_llist_node, i32, i32, %struct.Curl_message, %struct.easy_pollset, %struct.Names, ptr, ptr, ptr, ptr, %struct.SingleRequest, %struct.UserDefined, ptr, ptr, ptr, %struct.Progress, %struct.UrlState, ptr, %struct.PureInfo, %struct.curl_tlssessioninfo }
%struct.Curl_llist_node = type { ptr, ptr, ptr, ptr }
%struct.Curl_message = type { %struct.Curl_llist_node, %struct.CURLMsg }
%struct.CURLMsg = type { i32, ptr, %union.anon }
%union.anon = type { ptr }
%struct.easy_pollset = type { [5 x i32], i32, [5 x i8] }
%struct.Names = type { ptr, i32 }
%struct.SingleRequest = type <{ i64, i64, i64, i64, %struct.curltime, i32, i32, i32, i32, i64, i32, i32, i8, i8, [2 x i8], i32, ptr, ptr, %struct.bufq, i64, i64, ptr, ptr, %union.anon.0, ptr, i8, i32, [3 x i8] }>
%struct.curltime = type { i64, i32 }
%struct.bufq = type { ptr, ptr, ptr, ptr, i64, i64, i64, i32 }
%union.anon.0 = type { ptr }
%struct.UserDefined = type <{ ptr, ptr, ptr, ptr, ptr, ptr, i64, i64, i64, ptr, ptr, i64, ptr, ptr, ptr, ptr, ptr, ptr, ptr, ptr, ptr, ptr, ptr, ptr, ptr, ptr, ptr, ptr, ptr, ptr, ptr, ptr, ptr, ptr, ptr, i64, i64, i64, i64, i64, i64, i64, i64, i64, ptr, ptr, %struct.curl_mimepart, ptr, ptr, ptr, i64, %struct.ssl_config_data, %struct.ssl_config_data, ptr, i16, i8, i8, %struct.ssl_general_config, i32, i32, i32, [4 x i8], ptr, ptr, i64, i32, i8, i8, i8, i8, ptr, ptr, ptr, i32, [4 x i8], [74 x ptr], [8 x ptr], i32, i32, i32, [4 x i8], ptr, i32, [4 x i8], ptr, ptr, ptr, ptr, ptr, i32, i32, i32, i32, i32, i32, i32, i32, i64, ptr, ptr, i64, ptr, i64, ptr, ptr, ptr, ptr, i32, i16, i16, i16, i8, i8, i8, i8, i8, i8, i8, i8, i64, [6 x i8] }>
%struct.curl_mimepart = type { ptr, ptr, i32, i32, ptr, ptr, ptr, ptr, ptr, ptr, ptr, ptr, ptr, ptr, ptr, i64, %struct.mime_state, ptr, %struct.mime_encoder_state, i64 }
%struct.mime_state = type { i32, ptr, i64 }
%struct.mime_encoder_state = type { i64, i64, i64, [256 x i8] }
%struct.ssl_config_data = type { %struct.ssl_primary_config, i64, ptr, ptr, ptr, ptr, ptr, ptr, ptr, i16 }
%struct.ssl_primary_config = type { ptr, ptr, ptr, ptr, ptr, ptr, ptr, ptr, ptr, ptr, ptr, ptr, ptr, ptr, i8, i32, i8, i8 }
%struct.ssl_general_config = type { i32 }
%struct.Progress = type { i64, %struct.pgrs_dir, %struct.pgrs_dir, i64, i64, i32, i32, i64, i64, i64, i64, i64, i64, i64, i64, i64, %struct.curltime, %struct.curltime, %struct.curltime, %struct.curltime, %struct.curltime, [6 x i64], [6 x %struct.curltime], i32, i8 }
%struct.pgrs_dir = type { i64, i64, i64, %struct.pgrs_measure }
%struct.pgrs_measure = type { %struct.curltime, i64 }
%struct.UrlState = type { %struct.curltime, i64, i64, %struct.dynbuf, ptr, i64, ptr, i32, i32, i32, ptr, i32, i64, i32, ptr, %struct.digestdata, %struct.digestdata, %struct.auth, %struct.auth, %struct.Curl_async, ptr, i8, %struct.curltime, %struct.Curl_tree, %struct.Curl_llist, [15 x %struct.time_node], ptr, ptr, i64, i64, i64, i64, [32 x i8], i64, ptr, ptr, ptr, %struct.urlpieces, ptr, ptr, ptr, ptr, ptr, i64, %struct.dynbuf, %struct.Curl_llist, [2 x %struct.curl_header], ptr, i32, ptr, ptr, %struct.store_netrc, %struct.dynamically_allocated_data, i8, i8, i8, i8, i32 }
%struct.digestdata = type { ptr, ptr, ptr, ptr, ptr, ptr, i32, i8, i8 }
%struct.auth = type { i64, i64, i64, i8 }
%struct.Curl_async = type { ptr, ptr, ptr, ptr, i32, i32, i8 }
%struct.Curl_tree = type { ptr, ptr, ptr, ptr, %struct.curltime, ptr }
%struct.time_node = type { %struct.Curl_llist_node, %struct.curltime, i32 }
%struct.urlpieces = type { ptr, ptr, ptr, ptr, ptr, ptr, ptr, ptr }
%struct.dynbuf = type { ptr, i64, i64, i64 }
%struct.Curl_llist = type { ptr, ptr, ptr, i64 }
%struct.curl_header = type { ptr, ptr, i64, i64, i32, ptr }
%struct.store_netrc = type { %struct.dynbuf, ptr, i8 }
%struct.dynamically_allocated_data = type { ptr, ptr, ptr, ptr, ptr, ptr, ptr, ptr, ptr, ptr, ptr, ptr, ptr, ptr }
%struct.PureInfo = type { i32, i32, i32, i64, i64, i64, i64, i64, i64, i64, ptr, ptr, i64, i32, %struct.ip_quadruple, i32, ptr, i32, %struct.curl_certinfo, i32, i8 }
%struct.ip_quadruple = type { [46 x i8], [46 x i8], i32, i32 }
%struct.curl_certinfo = type { i32, ptr }
%struct.curl_tlssessioninfo = type { i32, ptr }

@Curl_cfree = external global ptr, align 8
@Curl_cstrdup = external global ptr, align 8
@.str.73 = private unnamed_addr constant [5 x i8] c"%ld-\00", align 1

; Function Attrs: nounwind uwtable
define internal i32 @setup_range(ptr noundef %0) #0 {
  %2 = alloca i32, align 4
  %3 = alloca ptr, align 8
  %4 = alloca ptr, align 8
  %5 = alloca i32, align 4
  store ptr %0, ptr %3, align 8, !tbaa !3
  call void @llvm.lifetime.start.p0(i64 8, ptr %4) #8
  %6 = load ptr, ptr %3, align 8, !tbaa !3
  %7 = getelementptr inbounds nuw %struct.Curl_easy, ptr %6, i32 0, i32 21
  store ptr %7, ptr %4, align 8, !tbaa !311
  %8 = load ptr, ptr %3, align 8, !tbaa !3
  %9 = getelementptr inbounds nuw %struct.Curl_easy, ptr %8, i32 0, i32 16
  %10 = getelementptr inbounds nuw %struct.UserDefined, ptr %9, i32 0, i32 43
  %11 = load i64, ptr %10, align 8, !tbaa !313
  %12 = load ptr, ptr %4, align 8, !tbaa !311
  %13 = getelementptr inbounds nuw %struct.UrlState, ptr %12, i32 0, i32 28
  store i64 %11, ptr %13, align 8, !tbaa !314
  %14 = load ptr, ptr %4, align 8, !tbaa !311
  %15 = getelementptr inbounds nuw %struct.UrlState, ptr %14, i32 0, i32 28
  %16 = load i64, ptr %15, align 8, !tbaa !314
  %17 = icmp ne i64 %16, 0
  br i1 %17, label %25, label %18

18:                                               ; preds = %1
  %19 = load ptr, ptr %3, align 8, !tbaa !3
  %20 = getelementptr inbounds nuw %struct.Curl_easy, ptr %19, i32 0, i32 16
  %21 = getelementptr inbounds nuw %struct.UserDefined, ptr %20, i32 0, i32 75
  %22 = getelementptr inbounds [74 x ptr], ptr %21, i64 0, i64 40
  %23 = load ptr, ptr %22, align 8, !tbaa !11
  %24 = icmp ne ptr %23, null
  br i1 %24, label %25, label %76

25:                                               ; preds = %18, %1
  %26 = load ptr, ptr %4, align 8, !tbaa !311
  %27 = getelementptr inbounds nuw %struct.UrlState, ptr %26, i32 0, i32 57
  %28 = load i32, ptr %27, align 4
  %29 = lshr i32 %28, 11
  %30 = and i32 %29, 1
  %31 = icmp ne i32 %30, 0
  br i1 %31, label %32, label %37

32:                                               ; preds = %25
  %33 = load ptr, ptr @Curl_cfree, align 8, !tbaa !10
  %34 = load ptr, ptr %4, align 8, !tbaa !311
  %35 = getelementptr inbounds nuw %struct.UrlState, ptr %34, i32 0, i32 27
  %36 = load ptr, ptr %35, align 8, !tbaa !315
  call void %33(ptr noundef %36)
  br label %37

37:                                               ; preds = %32, %25
  %38 = load ptr, ptr %4, align 8, !tbaa !311
  %39 = getelementptr inbounds nuw %struct.UrlState, ptr %38, i32 0, i32 28
  %40 = load i64, ptr %39, align 8, !tbaa !314
  %41 = icmp ne i64 %40, 0
  br i1 %41, label %42, label %49

42:                                               ; preds = %37
  %43 = load ptr, ptr %4, align 8, !tbaa !311
  %44 = getelementptr inbounds nuw %struct.UrlState, ptr %43, i32 0, i32 28
  %45 = load i64, ptr %44, align 8, !tbaa !314
  %46 = call ptr (ptr, ...) @curl_maprintf(ptr noundef @.str.73, i64 noundef %45)
  %47 = load ptr, ptr %4, align 8, !tbaa !311
  %48 = getelementptr inbounds nuw %struct.UrlState, ptr %47, i32 0, i32 27
  store ptr %46, ptr %48, align 8, !tbaa !315
  br label %59

49:                                               ; preds = %37
  %50 = load ptr, ptr @Curl_cstrdup, align 8, !tbaa !10
  %51 = load ptr, ptr %3, align 8, !tbaa !3
  %52 = getelementptr inbounds nuw %struct.Curl_easy, ptr %51, i32 0, i32 16
  %53 = getelementptr inbounds nuw %struct.UserDefined, ptr %52, i32 0, i32 75
  %54 = getelementptr inbounds [74 x ptr], ptr %53, i64 0, i64 40
  %55 = load ptr, ptr %54, align 8, !tbaa !11
  %56 = call ptr %50(ptr noundef %55)
  %57 = load ptr, ptr %4, align 8, !tbaa !311
  %58 = getelementptr inbounds nuw %struct.UrlState, ptr %57, i32 0, i32 27
  store ptr %56, ptr %58, align 8, !tbaa !315
  br label %59

59:                                               ; preds = %49, %42
  %60 = load ptr, ptr %4, align 8, !tbaa !311
  %61 = getelementptr inbounds nuw %struct.UrlState, ptr %60, i32 0, i32 27
  %62 = load ptr, ptr %61, align 8, !tbaa !315
  %63 = icmp ne ptr %62, null
  br i1 %63, label %65, label %64

64:                                               ; preds = %59
  store i32 27, ptr %2, align 4
  store i32 1, ptr %5, align 4
  br label %83

65:                                               ; preds = %59
  %66 = load ptr, ptr %4, align 8, !tbaa !311
  %67 = getelementptr inbounds nuw %struct.UrlState, ptr %66, i32 0, i32 57
  %68 = load i32, ptr %67, align 4
  %69 = and i32 %68, -2049
  %70 = or i32 %69, 2048
  store i32 %70, ptr %67, align 4
  %71 = load ptr, ptr %4, align 8, !tbaa !311
  %72 = getelementptr inbounds nuw %struct.UrlState, ptr %71, i32 0, i32 57
  %73 = load i32, ptr %72, align 4
  %74 = and i32 %73, -1025
  %75 = or i32 %74, 1024
  store i32 %75, ptr %72, align 4
  br label %82

76:                                               ; preds = %18
  %77 = load ptr, ptr %4, align 8, !tbaa !311
  %78 = getelementptr inbounds nuw %struct.UrlState, ptr %77, i32 0, i32 57
  %79 = load i32, ptr %78, align 4
  %80 = and i32 %79, -1025
  %81 = or i32 %80, 0
  store i32 %81, ptr %78, align 4
  br label %82

82:                                               ; preds = %76, %65
  store i32 0, ptr %2, align 4
  store i32 1, ptr %5, align 4
  br label %83

83:                                               ; preds = %82, %64
  call void @llvm.lifetime.end.p0(i64 8, ptr %4) #8
  %84 = load i32, ptr %2, align 4
  ret i32 %84
}